; Function Attrs: mustprogress uwtable
define void @_ZN9benchmark8internal12PerfCounters6CreateERKSt6vectorINSt7__cxx1112basic_stringIcSt11char_traitsIcESaIcEEESaIS8_EE(ptr dead_on_unwind noalias writable writeonly sret(%"class.benchmark::internal::PerfCounters") align 8 captures(none) initializes((0, 72)) %0, ptr noundef nonnull readonly align 8 captures(none) dereferenceable(24) %1) local_unnamed_addr #4 align 2 personality ptr @__gxx_personality_v0 {
  %3 = load ptr, ptr %1, align 8, !tbaa !3
  %4 = getelementptr inbounds nuw i8, ptr %1, i64 8
  %5 = load ptr, ptr %4, align 8, !tbaa !3
  %6 = icmp eq ptr %3, %5
  br i1 %6, label %_ZN9benchmark8internallsIA37_cEERNS0_7LogTypeES4_RKT_.exit, label %7

7:                                                ; preds = %2
  %8 = load atomic i8, ptr @_ZGVZN9benchmark8internal19GetErrorLogInstanceEvE9error_log acquire, align 8
  %9 = icmp eq i8 %8, 0
  br i1 %9, label %10, label %_ZN9benchmark8internal19GetErrorLogInstanceEv.exit, !prof !8

10:                                               ; preds = %7
  %11 = tail call i32 @__cxa_guard_acquire(ptr nonnull @_ZGVZN9benchmark8internal19GetErrorLogInstanceEvE9error_log) #12
  %.not.i = icmp eq i32 %11, 0
  br i1 %.not.i, label %_ZN9benchmark8internal19GetErrorLogInstanceEv.exit, label %12

12:                                               ; preds = %10
  store ptr @_ZSt4clog, ptr @_ZZN9benchmark8internal19GetErrorLogInstanceEvE9error_log, align 8, !tbaa !9
  tail call void @__cxa_guard_release(ptr nonnull @_ZGVZN9benchmark8internal19GetErrorLogInstanceEvE9error_log) #12
  br label %_ZN9benchmark8internal19GetErrorLogInstanceEv.exit

_ZN9benchmark8internal19GetErrorLogInstanceEv.exit: ; preds = %7, %10, %12
  %13 = load ptr, ptr @_ZZN9benchmark8internal19GetErrorLogInstanceEvE9error_log, align 8, !tbaa !9
  %.not.i1 = icmp eq ptr %13, null
  br i1 %.not.i1, label %_ZN9benchmark8internallsIA37_cEERNS0_7LogTypeES4_RKT_.exit, label %14

14:                                               ; preds = %_ZN9benchmark8internal19GetErrorLogInstanceEv.exit
  %15 = tail call noundef nonnull align 8 dereferenceable(8) ptr @_ZSt16__ostream_insertIcSt11char_traitsIcEERSt13basic_ostreamIT_T0_ES6_PKS3_l(ptr noundef nonnull align 8 dereferenceable(8) %13, ptr noundef nonnull @.str, i64 noundef 36)
  br label %_ZN9benchmark8internallsIA37_cEERNS0_7LogTypeES4_RKT_.exit

_ZN9benchmark8internallsIA37_cEERNS0_7LogTypeES4_RKT_.exit: ; preds = %14, %_ZN9benchmark8internal19GetErrorLogInstanceEv.exit, %2
  tail call void @llvm.memset.p0.i64(ptr noundef nonnull align 8 dereferenceable(72) %0, i8 0, i64 72, i1 false), !alias.scope !12
  ret void
}